Certificate:
    Data:
        Version: 3 (0x2)
        Serial Number: 11513053637792046433 (0x9fc69548e89d1d61)
    Signature Algorithm: sha1WithRSAEncryption
        Issuer: C=RU, ST=Russia, O=PostmanQ, OU=IT, CN=Solomonov Alexey/emailAddress=byorty@mail.ru
        Validity
            Not Before: Dec  5 15:39:19 2014 GMT
            Not After : Dec  5 15:39:19 2015 GMT
        Subject: C=RU, ST=Russia, O=PostmanQ, OU=IT, CN=Solomonov Alexey/emailAddress=byorty@mail.ru
        Subject Public Key Info:
            Public Key Algorithm: rsaEncryption
                Public-Key: (1024 bit)
                Modulus:
                    00:cb:f6:cb:60:73:95:de:f5:0c:11:d9:fb:56:87:
                    fe:32:22:49:d8:13:28:fa:02:0e:03:76:1c:ab:ea:
                    b3:d3:80:a6:17:3a:46:3d:ac:75:36:c6:8a:fb:be:
                    51:55:21:c0:41:aa:63:d3:2e:dd:0a:b9:5d:6e:0d:
                    92:bd:c7:f1:a2:f6:07:c7:ae:6c:c2:a5:36:f6:09:
                    ce:17:db:b6:90:4a:71:bb:30:88:a6:6d:9c:15:b2:
                    21:5f:d9:8e:27:8e:e1:25:61:16:61:66:3c:d3:4c:
                    0d:60:00:94:ce:96:48:0c:71:81:84:f4:f4:20:6e:
                    44:de:bd:e9:b7:ed:7d:c4:13
                Exponent: 65537 (0x10001)
        X509v3 extensions:
            X509v3 Basic Constraints: 
                CA:FALSE
            Netscape Comment: 
                OpenSSL Generated Certificate
            X509v3 Subject Key Identifier: 
                46:96:DB:C2:AD:87:9D:2A:A1:B7:C3:3E:AB:1E:68:29:B7:47:92:7E
            X509v3 Authority Key Identifier: 
                keyid:0B:B1:19:DF:36:6C:ED:05:FA:4E:D8:49:87:B2:DA:71:98:06:4A:29

    Signature Algorithm: sha1WithRSAEncryption
         79:ff:d2:7a:9f:1a:b3:a2:81:f4:9f:17:af:b4:f8:ac:2a:c7:
         7b:f9:68:30:23:0c:c2:bc:32:93:3d:06:2b:04:c7:83:4d:f1:
         ab:a9:16:ca:e6:6a:fd:11:97:f4:2f:cf:70:be:64:30:2c:d6:
         4d:8a:63:04:74:d3:93:0c:d8:8b:c5:05:89:54:5d:f1:30:96:
         60:b8:87:de:6a:93:5c:29:47:2f:3b:6c:66:4f:f9:86:81:81:
         ba:6c:2c:93:65:d2:e4:b6:aa:ac:ee:33:61:a8:84:f8:84:72:
         0b:d8:1b:36:e7:9b:0a:85:25:5b:fe:d7:af:a5:c7:6c:e5:07:
         ba:13
-----BEGIN CERTIFICATE-----
MIIC6TCCAlKgAwIBAgIJAJ/GlUjonR1hMA0GCSqGSIb3DQEBBQUAMHgxCzAJBgNV
BAYTAlJVMQ8wDQYDVQQIDAZSdXNzaWExETAPBgNVBAoMCFBvc3RtYW5RMQswCQYD
VQQLDAJJVDEZMBcGA1UEAwwQU29sb21vbm92IEFsZXhleTEdMBsGCSqGSIb3DQEJ
ARYOYnlvcnR5QG1haWwucnUwHhcNMTQxMjA1MTUzOTE5WhcNMTUxMjA1MTUzOTE5
WjB4MQswCQYDVQQGEwJSVTEPMA0GA1UECAwGUnVzc2lhMREwDwYDVQQKDAhQb3N0
bWFuUTELMAkGA1UECwwCSVQxGTAXBgNVBAMMEFNvbG9tb25vdiBBbGV4ZXkxHTAb
BgkqhkiG9w0BCQEWDmJ5b3J0eUBtYWlsLnJ1MIGfMA0GCSqGSIb3DQEBAQUAA4GN
ADCBiQKBgQDL9stgc5Xe9QwR2ftWh/4yIknYEyj6Ag4Ddhyr6rPTgKYXOkY9rHU2
xor7vlFVIcBBqmPTLt0KuV1uDZK9x/Gi9gfHrmzCpTb2Cc4X27aQSnG7MIimbZwV
siFf2Y4njuElYRZhZjzTTA1gAJTOlkgMcYGE9PQgbkTevem37X3EEwIDAQABo3sw
eTAJBgNVHRMEAjAAMCwGCWCGSAGG+EIBDQQfFh1PcGVuU1NMIEdlbmVyYXRlZCBD
ZXJ0aWZpY2F0ZTAdBgNVHQ4EFgQURpbbwq2HnSqht8M+qx5oKbdHkn4wHwYDVR0j
BBgwFoAUC7EZ3zZs7QX6TthJh7LacZgGSikwDQYJKoZIhvcNAQEFBQADgYEAef/S
ep8as6KB9J8Xr7T4rCrHe/loMCMMwrwykz0GKwTHg03xq6kWyuZq/RGX9C/PcL5k
MCzWTYpjBHTTkwzYi8UFiVRd8TCWYLiH3mqTXClHLztsZk/5hoGBumwsk2XS5Laq
rO4zYaiE+IRyC9gbNuebCoUlW/7Xr6XHbOUHuhM=
-----END CERTIFICATE-----
