Certificate:
    Data:
        Version: 3 (0x2)
        Serial Number: 14197731656133188432 (0xc50879b7ec231b50)
    Signature Algorithm: sha1WithRSAEncryption
        Issuer: C=RU, ST=Russia, O=PostmanQ, OU=IT, CN=adnwb.ru/emailAddress=byorty@mail.ru
        Validity
            Not Before: Dec  9 20:44:43 2014 GMT
            Not After : Dec  9 20:44:43 2015 GMT
        Subject: C=RU, ST=Russia, O=PostmanQ, OU=IT, CN=adnwb.ru/emailAddress=byorty@mail.ru
        Subject Public Key Info:
            Public Key Algorithm: rsaEncryption
                Public-Key: (1024 bit)
                Modulus:
                    00:cb:f6:cb:60:73:95:de:f5:0c:11:d9:fb:56:87:
                    fe:32:22:49:d8:13:28:fa:02:0e:03:76:1c:ab:ea:
                    b3:d3:80:a6:17:3a:46:3d:ac:75:36:c6:8a:fb:be:
                    51:55:21:c0:41:aa:63:d3:2e:dd:0a:b9:5d:6e:0d:
                    92:bd:c7:f1:a2:f6:07:c7:ae:6c:c2:a5:36:f6:09:
                    ce:17:db:b6:90:4a:71:bb:30:88:a6:6d:9c:15:b2:
                    21:5f:d9:8e:27:8e:e1:25:61:16:61:66:3c:d3:4c:
                    0d:60:00:94:ce:96:48:0c:71:81:84:f4:f4:20:6e:
                    44:de:bd:e9:b7:ed:7d:c4:13
                Exponent: 65537 (0x10001)
        X509v3 extensions:
            X509v3 Basic Constraints: 
                CA:FALSE
            Netscape Comment: 
                OpenSSL Generated Certificate
            X509v3 Subject Key Identifier: 
                46:96:DB:C2:AD:87:9D:2A:A1:B7:C3:3E:AB:1E:68:29:B7:47:92:7E
            X509v3 Authority Key Identifier: 
                keyid:17:D4:6F:0D:40:35:6A:A0:9F:1D:77:A7:E7:A5:D5:A3:EC:D1:BF:EF

    Signature Algorithm: sha1WithRSAEncryption
         2f:db:8d:64:b5:2c:b2:ac:6b:ba:ab:d2:2a:4c:66:01:e7:8a:
         40:0d:3c:21:7d:20:56:9c:36:95:86:29:0f:5e:14:97:3b:8e:
         d6:7c:ef:af:5c:22:56:7b:4e:5e:3b:e1:a9:c6:37:e8:2e:ed:
         1f:d1:56:d7:39:52:c1:4e:3a:04:db:78:98:3d:c0:fc:46:29:
         d2:d9:a8:c9:a2:50:c3:26:ef:ee:1b:f7:cb:65:89:12:d1:12:
         90:e7:c9:83:aa:e1:a1:db:24:7d:4c:06:d2:3b:d2:19:e3:de:
         b3:d3:17:4a:90:cf:2f:59:1f:0d:30:f1:34:70:bb:bc:c0:60:
         8c:cd
-----BEGIN CERTIFICATE-----
MIIC2TCCAkKgAwIBAgIJAMUIebfsIxtQMA0GCSqGSIb3DQEBBQUAMHAxCzAJBgNV
BAYTAlJVMQ8wDQYDVQQIDAZSdXNzaWExETAPBgNVBAoMCFBvc3RtYW5RMQswCQYD
VQQLDAJJVDERMA8GA1UEAwwIYWRud2IucnUxHTAbBgkqhkiG9w0BCQEWDmJ5b3J0
eUBtYWlsLnJ1MB4XDTE0MTIwOTIwNDQ0M1oXDTE1MTIwOTIwNDQ0M1owcDELMAkG
A1UEBhMCUlUxDzANBgNVBAgMBlJ1c3NpYTERMA8GA1UECgwIUG9zdG1hblExCzAJ
BgNVBAsMAklUMREwDwYDVQQDDAhhZG53Yi5ydTEdMBsGCSqGSIb3DQEJARYOYnlv
cnR5QG1haWwucnUwgZ8wDQYJKoZIhvcNAQEBBQADgY0AMIGJAoGBAMv2y2Bzld71
DBHZ+1aH/jIiSdgTKPoCDgN2HKvqs9OAphc6Rj2sdTbGivu+UVUhwEGqY9Mu3Qq5
XW4Nkr3H8aL2B8eubMKlNvYJzhfbtpBKcbswiKZtnBWyIV/ZjieO4SVhFmFmPNNM
DWAAlM6WSAxxgYT09CBuRN696bftfcQTAgMBAAGjezB5MAkGA1UdEwQCMAAwLAYJ
YIZIAYb4QgENBB8WHU9wZW5TU0wgR2VuZXJhdGVkIENlcnRpZmljYXRlMB0GA1Ud
DgQWBBRGltvCrYedKqG3wz6rHmgpt0eSfjAfBgNVHSMEGDAWgBQX1G8NQDVqoJ8d
d6fnpdWj7NG/7zANBgkqhkiG9w0BAQUFAAOBgQAv241ktSyyrGu6q9IqTGYB54pA
DTwhfSBWnDaVhikPXhSXO47WfO+vXCJWe05eO+GpxjfoLu0f0VbXOVLBTjoE23iY
PcD8RinS2ajJolDDJu/uG/fLZYkS0RKQ58mDquGh2yR9TAbSO9IZ496z0xdKkM8v
WR8NMPE0cLu8wGCMzQ==
-----END CERTIFICATE-----
