Certificate:
    Data:
        Version: 3 (0x2)
        Serial Number: 13376541131438991763 (0xb9a305497ed2a993)
    Signature Algorithm: sha1WithRSAEncryption
        Issuer: C=RU, ST=Russia, O=PostmanQ, OU=IT, CN=Alexey Solomonov/emailAddress=byorty@mail.ru
        Validity
            Not Before: Nov 29 12:33:42 2014 GMT
            Not After : Nov 29 12:33:42 2015 GMT
        Subject: C=RU, ST=Russia, O=PostmanQ, OU=IT, CN=Alexey Solomonov/emailAddress=byorty@mail.ru
        Subject Public Key Info:
            Public Key Algorithm: rsaEncryption
                Public-Key: (1024 bit)
                Modulus:
                    00:cb:f6:cb:60:73:95:de:f5:0c:11:d9:fb:56:87:
                    fe:32:22:49:d8:13:28:fa:02:0e:03:76:1c:ab:ea:
                    b3:d3:80:a6:17:3a:46:3d:ac:75:36:c6:8a:fb:be:
                    51:55:21:c0:41:aa:63:d3:2e:dd:0a:b9:5d:6e:0d:
                    92:bd:c7:f1:a2:f6:07:c7:ae:6c:c2:a5:36:f6:09:
                    ce:17:db:b6:90:4a:71:bb:30:88:a6:6d:9c:15:b2:
                    21:5f:d9:8e:27:8e:e1:25:61:16:61:66:3c:d3:4c:
                    0d:60:00:94:ce:96:48:0c:71:81:84:f4:f4:20:6e:
                    44:de:bd:e9:b7:ed:7d:c4:13
                Exponent: 65537 (0x10001)
        X509v3 extensions:
            X509v3 Basic Constraints:
                CA:FALSE
            Netscape Comment:
                OpenSSL Generated Certificate
            X509v3 Subject Key Identifier:
                46:96:DB:C2:AD:87:9D:2A:A1:B7:C3:3E:AB:1E:68:29:B7:47:92:7E
            X509v3 Authority Key Identifier:
                keyid:99:63:55:10:84:05:0F:81:18:ED:02:80:58:3C:2C:32:F1:6B:CD:A9

    Signature Algorithm: sha1WithRSAEncryption
         31:2d:e9:ff:2a:4f:cd:1c:c0:3a:c0:2a:cb:d3:6d:e8:56:b0:
         94:25:c8:50:c5:39:9b:30:35:41:df:42:0d:16:20:e9:48:8f:
         2e:e4:2c:0e:fc:9a:8d:99:ad:29:13:d6:b2:ed:de:42:b1:10:
         5d:6e:62:1d:ee:b5:61:1f:09:9f:c6:8a:0c:ab:52:7b:c0:ec:
         d7:64:ac:e9:4e:30:9d:6c:48:02:10:79:cb:2b:f4:60:66:cd:
         23:1e:35:1a:a3:c8:ad:22:12:f3:af:cc:1c:75:91:e2:bd:1c:
         65:2e:e7:57:ec:80:34:58:2d:16:4d:19:70:b8:7f:05:ba:24:
         f3:46
-----BEGIN CERTIFICATE-----
MIIC6TCCAlKgAwIBAgIJALmjBUl+0qmTMA0GCSqGSIb3DQEBBQUAMHgxCzAJBgNV
BAYTAlJVMQ8wDQYDVQQIDAZSdXNzaWExETAPBgNVBAoMCFBvc3RtYW5RMQswCQYD
VQQLDAJJVDEZMBcGA1UEAwwQQWxleGV5IFNvbG9tb25vdjEdMBsGCSqGSIb3DQEJ
ARYOYnlvcnR5QG1haWwucnUwHhcNMTQxMTI5MTIzMzQyWhcNMTUxMTI5MTIzMzQy
WjB4MQswCQYDVQQGEwJSVTEPMA0GA1UECAwGUnVzc2lhMREwDwYDVQQKDAhQb3N0
bWFuUTELMAkGA1UECwwCSVQxGTAXBgNVBAMMEEFsZXhleSBTb2xvbW9ub3YxHTAb
BgkqhkiG9w0BCQEWDmJ5b3J0eUBtYWlsLnJ1MIGfMA0GCSqGSIb3DQEBAQUAA4GN
ADCBiQKBgQDL9stgc5Xe9QwR2ftWh/4yIknYEyj6Ag4Ddhyr6rPTgKYXOkY9rHU2
xor7vlFVIcBBqmPTLt0KuV1uDZK9x/Gi9gfHrmzCpTb2Cc4X27aQSnG7MIimbZwV
siFf2Y4njuElYRZhZjzTTA1gAJTOlkgMcYGE9PQgbkTevem37X3EEwIDAQABo3sw
eTAJBgNVHRMEAjAAMCwGCWCGSAGG+EIBDQQfFh1PcGVuU1NMIEdlbmVyYXRlZCBD
ZXJ0aWZpY2F0ZTAdBgNVHQ4EFgQURpbbwq2HnSqht8M+qx5oKbdHkn4wHwYDVR0j
BBgwFoAUmWNVEIQFD4EY7QKAWDwsMvFrzakwDQYJKoZIhvcNAQEFBQADgYEAMS3p
/ypPzRzAOsAqy9Nt6FawlCXIUMU5mzA1Qd9CDRYg6UiPLuQsDvyajZmtKRPWsu3e
QrEQXW5iHe61YR8Jn8aKDKtSe8Ds12Ss6U4wnWxIAhB5yyv0YGbNIx41GqPIrSIS
86/MHHWR4r0cZS7nV+yANFgtFk0ZcLh/Bbok80Y=
-----END CERTIFICATE-----
