Certificate:
    Data:
        Version: 3 (0x2)
        Serial Number: 14197731656133188431 (0xc50879b7ec231b4f)
    Signature Algorithm: sha1WithRSAEncryption
        Issuer: C=RU, ST=Russia, O=PostmanQ, OU=IT, CN=adnwb.ru/emailAddress=byorty@mail.ru
        Validity
            Not Before: Dec  9 20:37:41 2014 GMT
            Not After : Dec  8 20:37:41 2017 GMT
        Subject: C=RU, ST=Russia, O=PostmanQ, OU=IT, CN=adnwb.ru/emailAddress=byorty@mail.ru
        Subject Public Key Info:
            Public Key Algorithm: rsaEncryption
                Public-Key: (1024 bit)
                Modulus:
                    00:97:b6:cc:0f:48:07:cd:65:03:b4:b3:e7:25:a5:
                    32:c8:a4:e7:bd:09:ff:a8:f6:18:79:65:5b:e1:8a:
                    99:58:29:57:95:74:1e:54:06:27:51:cd:1f:3b:b8:
                    4a:1e:c4:7a:bd:88:4d:24:6f:64:ec:cc:42:17:9e:
                    48:81:1a:1c:36:a3:15:b2:1a:15:f7:f0:fc:cc:67:
                    4f:df:49:38:1b:87:71:9c:2c:7c:6c:8e:f9:d7:15:
                    11:41:66:a6:93:c5:9c:84:2b:2d:67:ea:64:69:10:
                    dd:7b:c4:70:ff:9e:d5:d1:47:78:ae:f2:1f:aa:20:
                    79:a3:98:06:e8:3a:15:b4:cf
                Exponent: 65537 (0x10001)
        X509v3 extensions:
            X509v3 Subject Key Identifier: 
                17:D4:6F:0D:40:35:6A:A0:9F:1D:77:A7:E7:A5:D5:A3:EC:D1:BF:EF
            X509v3 Authority Key Identifier: 
                keyid:17:D4:6F:0D:40:35:6A:A0:9F:1D:77:A7:E7:A5:D5:A3:EC:D1:BF:EF

            X509v3 Basic Constraints: 
                CA:TRUE
    Signature Algorithm: sha1WithRSAEncryption
         52:f7:5a:a7:e8:2f:8b:0e:22:45:56:3f:a6:45:8a:0a:b1:75:
         52:da:bc:12:4b:fa:78:f2:06:49:37:45:15:db:87:82:79:3b:
         ad:e7:0e:2d:aa:43:4c:9b:1d:0c:6d:81:68:ea:0f:92:05:18:
         72:64:bd:e7:c8:32:73:d2:e0:08:d0:76:84:f9:da:b2:d8:79:
         c1:1c:17:66:1e:68:25:c6:57:73:4e:e3:67:f1:2d:e6:68:4e:
         8c:28:79:fc:32:87:e8:51:61:6f:01:e4:8a:79:2c:d6:b4:6e:
         84:e8:66:29:37:8f:35:fc:c3:c1:40:55:96:17:0d:1a:be:1b:
         99:de
-----BEGIN CERTIFICATE-----
MIICrjCCAhegAwIBAgIJAMUIebfsIxtPMA0GCSqGSIb3DQEBBQUAMHAxCzAJBgNV
BAYTAlJVMQ8wDQYDVQQIDAZSdXNzaWExETAPBgNVBAoMCFBvc3RtYW5RMQswCQYD
VQQLDAJJVDERMA8GA1UEAwwIYWRud2IucnUxHTAbBgkqhkiG9w0BCQEWDmJ5b3J0
eUBtYWlsLnJ1MB4XDTE0MTIwOTIwMzc0MVoXDTE3MTIwODIwMzc0MVowcDELMAkG
A1UEBhMCUlUxDzANBgNVBAgMBlJ1c3NpYTERMA8GA1UECgwIUG9zdG1hblExCzAJ
BgNVBAsMAklUMREwDwYDVQQDDAhhZG53Yi5ydTEdMBsGCSqGSIb3DQEJARYOYnlv
cnR5QG1haWwucnUwgZ8wDQYJKoZIhvcNAQEBBQADgY0AMIGJAoGBAJe2zA9IB81l
A7Sz5yWlMsik570J/6j2GHllW+GKmVgpV5V0HlQGJ1HNHzu4Sh7Eer2ITSRvZOzM
QheeSIEaHDajFbIaFffw/MxnT99JOBuHcZwsfGyO+dcVEUFmppPFnIQrLWfqZGkQ
3XvEcP+e1dFHeK7yH6ogeaOYBug6FbTPAgMBAAGjUDBOMB0GA1UdDgQWBBQX1G8N
QDVqoJ8dd6fnpdWj7NG/7zAfBgNVHSMEGDAWgBQX1G8NQDVqoJ8dd6fnpdWj7NG/
7zAMBgNVHRMEBTADAQH/MA0GCSqGSIb3DQEBBQUAA4GBAFL3WqfoL4sOIkVWP6ZF
igqxdVLavBJL+njyBkk3RRXbh4J5O63nDi2qQ0ybHQxtgWjqD5IFGHJkvefIMnPS
4AjQdoT52rLYecEcF2YeaCXGV3NO42fxLeZoTowoefwyh+hRYW8B5Ip5LNa0boTo
Zik3jzX8w8FAVZYXDRq+G5ne
-----END CERTIFICATE-----
